target datalayout = "e-m:e-p270:32:32-p271:32:32-p272:64:64-i64:64-i128:128-f80:128-n8:16:32:64-S128"
target triple = "x86_64-pc-linux-gnu"

@.str.4 = private unnamed_addr constant [5 x i8] c"true\00", align 1
@.str.5 = private unnamed_addr constant [6 x i8] c"false\00", align 1

; Function Attrs: nounwind uwtable
define internal i32 @pmix_mca_base_var_enum_bool_get_value(ptr noundef %0, i32 noundef %1, ptr noundef %2, ptr noundef %3) #0 {
  %5 = alloca i32, align 4
  %6 = alloca ptr, align 8
  %7 = alloca i32, align 4
  %8 = alloca ptr, align 8
  %9 = alloca ptr, align 8
  store ptr %0, ptr %6, align 8, !tbaa !3
  store i32 %1, ptr %7, align 4, !tbaa !24
  store ptr %2, ptr %8, align 8, !tbaa !45
  store ptr %3, ptr %9, align 8, !tbaa !47
  %10 = load i32, ptr %7, align 4, !tbaa !24
  %11 = icmp slt i32 1, %10
  br i1 %11, label %12, label %13

12:                                               ; preds = %4
  store i32 -65, ptr %5, align 4
  br label %22

13:                                               ; preds = %4
  %14 = load i32, ptr %7, align 4, !tbaa !24
  %15 = icmp ne i32 %14, 0
  %16 = select i1 %15, i32 1, i32 0
  %17 = load ptr, ptr %8, align 8, !tbaa !45
  store i32 %16, ptr %17, align 4, !tbaa !24
  %18 = load i32, ptr %7, align 4, !tbaa !24
  %19 = icmp ne i32 %18, 0
  %20 = select i1 %19, ptr @.str.4, ptr @.str.5
  %21 = load ptr, ptr %9, align 8, !tbaa !47
  store ptr %20, ptr %21, align 8, !tbaa !49
  store i32 0, ptr %5, align 4
  br label %22

22:                                               ; preds = %13, %12
  %23 = load i32, ptr %5, align 4
  ret i32 %23
}