; Function Attrs: mustprogress nofree norecurse nosync nounwind willreturn memory(argmem: write) uwtable
define internal range(i32 -65, 1) i32 @pmix_mca_base_var_enum_bool_get_value(ptr readnone captures(none) %0, i32 noundef %1, ptr noundef writeonly captures(none) %2, ptr noundef writeonly captures(none) %3) #0 {
  %5 = icmp sgt i32 %1, 1
  br i1 %5, label %9, label %6

6:                                                ; preds = %4
  %.not = icmp ne i32 %1, 0
  %7 = zext i1 %.not to i32
  store i32 %7, ptr %2, align 4, !tbaa !40
  %8 = select i1 %.not, ptr @.str.4, ptr @.str.5
  store ptr %8, ptr %3, align 8, !tbaa !41
  br label %9

9:                                                ; preds = %4, %6
  %.0 = phi i32 [ 0, %6 ], [ -65, %4 ]
  ret i32 %.0
}